; Function Attrs: nounwind uwtable
define i32 @Gia_ManSatokoCallOne(ptr noundef %0, ptr noundef %1, i32 noundef %2) local_unnamed_addr #0 {
  %4 = alloca %struct.timespec, align 8
  %5 = alloca %struct.timespec, align 8
  call void @llvm.lifetime.start.p0(i64 16, ptr nonnull %5) #16
  %6 = call i32 @clock_gettime(i32 noundef 1, ptr noundef nonnull %5) #16
  %7 = icmp slt i32 %6, 0
  br i1 %7, label %Abc_Clock.exit, label %8

8:                                                ; preds = %3
  %9 = load i64, ptr %5, align 8, !tbaa !29
  %.neg13 = mul i64 %9, -1000000
  %10 = getelementptr inbounds nuw i8, ptr %5, i64 8
  %11 = load i64, ptr %10, align 8, !tbaa !32
  %.neg = sdiv i64 %11, -1000
  %.neg14 = add i64 %.neg, %.neg13
  br label %Abc_Clock.exit

Abc_Clock.exit:                                   ; preds = %3, %8
  %.0.i.neg = phi i64 [ %.neg14, %8 ], [ 1, %3 ]
  call void @llvm.lifetime.end.p0(i64 16, ptr nonnull %5) #16
  %12 = call ptr @Gia_ManSatokoCreate(ptr noundef %0, ptr noundef %1)
  %.not = icmp eq ptr %12, null
  br i1 %.not, label %19, label %13

13:                                               ; preds = %Abc_Clock.exit
  %14 = call i32 @satoko_solve(ptr noundef nonnull %12) #16
  %15 = call ptr @satoko_stats(ptr noundef nonnull %12) #16
  %16 = getelementptr inbounds nuw i8, ptr %15, i64 40
  %17 = load i64, ptr %16, align 8, !tbaa !42
  %18 = trunc i64 %17 to i32
  call void @satoko_destroy(ptr noundef nonnull %12) #16
  br label %19

19:                                               ; preds = %13, %Abc_Clock.exit
  %.09 = phi i32 [ %14, %13 ], [ -1, %Abc_Clock.exit ]
  %.0 = phi i32 [ %18, %13 ], [ 0, %Abc_Clock.exit ]
  call void @llvm.lifetime.start.p0(i64 16, ptr nonnull %4) #16
  %20 = call i32 @clock_gettime(i32 noundef 1, ptr noundef nonnull %4) #16
  %21 = icmp slt i32 %20, 0
  br i1 %21, label %Abc_Clock.exit12, label %22

22:                                               ; preds = %19
  %23 = load i64, ptr %4, align 8, !tbaa !29
  %24 = mul nsw i64 %23, 1000000
  %25 = getelementptr inbounds nuw i8, ptr %4, i64 8
  %26 = load i64, ptr %25, align 8, !tbaa !32
  %27 = sdiv i64 %26, 1000
  %28 = add nsw i64 %27, %24
  br label %Abc_Clock.exit12

Abc_Clock.exit12:                                 ; preds = %19, %22
  %.0.i11 = phi i64 [ %28, %22 ], [ -1, %19 ]
  call void @llvm.lifetime.end.p0(i64 16, ptr nonnull %4) #16
  %29 = icmp sgt i32 %2, -1
  br i1 %29, label %30, label %31

30:                                               ; preds = %Abc_Clock.exit12
  call void (i32, ptr, ...) @Abc_Print(i32 poison, ptr noundef nonnull @.str, i32 noundef %2)
  br label %Gia_ManSatokoReport.exit

31:                                               ; preds = %Abc_Clock.exit12
  call void (i32, ptr, ...) @Abc_Print(i32 poison, ptr noundef nonnull @.str.1)
  br label %Gia_ManSatokoReport.exit

Gia_ManSatokoReport.exit:                         ; preds = %30, %31
  %32 = add i64 %.0.i11, %.0.i.neg
  %switch.selectcmp.i = icmp eq i32 %.09, 1
  %switch.select.i = select i1 %switch.selectcmp.i, ptr @.str.3, ptr @.str.4
  %switch.selectcmp6.i = icmp eq i32 %.09, 0
  %switch.select7.i = select i1 %switch.selectcmp6.i, ptr @.str.2, ptr %switch.select.i
  call void (i32, ptr, ...) @Abc_Print(i32 poison, ptr noundef nonnull %switch.select7.i)
  call void (i32, ptr, ...) @Abc_Print(i32 poison, ptr noundef nonnull @.str.10, ptr noundef nonnull @.str.5)
  %33 = sitofp i64 %32 to double
  %34 = fdiv double %33, 1.000000e+06
  call void (i32, ptr, ...) @Abc_Print(i32 poison, ptr noundef nonnull @.str.11, double noundef %34)
  ret i32 %.0
}